; Function Attrs: nofree norecurse nosync nounwind memory(argmem: write) uwtable
define hidden range(i32 0, 2) i32 @avifFractionAdd(i64 %0, i64 %1, ptr nocapture noundef writeonly %2) local_unnamed_addr #8 {
  %.sroa.6.0.extract.shift = lshr i64 %0, 32
  %.sroa.5.0.extract.shift = lshr i64 %1, 32
  %sext = shl i64 %0, 32
  %4 = ashr exact i64 %sext, 32
  %5 = ashr i64 %0, 32
  %spec.select.i.i.i = tail call i64 @llvm.abs.i64(i64 %4, i1 true)
  %.not16.i.i.i = icmp ult i64 %0, 4294967296
  br i1 %.not16.i.i.i, label %calcGCD.exit.i.i, label %.lr.ph.preheader.i.i.i

.lr.ph.preheader.i.i.i:                           ; preds = %3
  %.010.i.i.i = tail call i64 @llvm.abs.i64(i64 %5, i1 true)
  br label %.lr.ph.i.i.i

.lr.ph.i.i.i:                                     ; preds = %.lr.ph.i.i.i, %.lr.ph.preheader.i.i.i
  %.118.i.i.i = phi i64 [ %.11117.i.i.i, %.lr.ph.i.i.i ], [ %spec.select.i.i.i, %.lr.ph.preheader.i.i.i ]
  %.11117.i.i.i = phi i64 [ %6, %.lr.ph.i.i.i ], [ %.010.i.i.i, %.lr.ph.preheader.i.i.i ]
  %6 = urem i64 %.118.i.i.i, %.11117.i.i.i
  %.not.i.i.i = icmp eq i64 %6, 0
  br i1 %.not.i.i.i, label %calcGCD.exit.i.i, label %.lr.ph.i.i.i, !llvm.loop !4

calcGCD.exit.i.i:                                 ; preds = %.lr.ph.i.i.i, %3
  %.1.lcssa.i.i.i = phi i64 [ %spec.select.i.i.i, %3 ], [ %.11117.i.i.i, %.lr.ph.i.i.i ]
  %7 = icmp ugt i64 %.1.lcssa.i.i.i, 1
  br i1 %7, label %8, label %avifFractionSimplify.exit.i

8:                                                ; preds = %calcGCD.exit.i.i
  %9 = sdiv i64 %4, %.1.lcssa.i.i.i
  %10 = sdiv i64 %5, %.1.lcssa.i.i.i
  br label %avifFractionSimplify.exit.i

avifFractionSimplify.exit.i:                      ; preds = %8, %calcGCD.exit.i.i
  %.sroa.6.0.in = phi i64 [ %10, %8 ], [ %.sroa.6.0.extract.shift, %calcGCD.exit.i.i ]
  %.sroa.07.0.in = phi i64 [ %9, %8 ], [ %0, %calcGCD.exit.i.i ]
  %.sroa.6.0 = trunc i64 %.sroa.6.0.in to i32
  %sext20 = shl i64 %1, 32
  %11 = ashr exact i64 %sext20, 32
  %12 = ashr i64 %1, 32
  %spec.select.i.i32.i = tail call i64 @llvm.abs.i64(i64 %11, i1 true)
  %.not16.i.i33.i = icmp ult i64 %1, 4294967296
  br i1 %.not16.i.i33.i, label %calcGCD.exit.i40.i, label %.lr.ph.preheader.i.i34.i

.lr.ph.preheader.i.i34.i:                         ; preds = %avifFractionSimplify.exit.i
  %.010.i.i35.i = tail call i64 @llvm.abs.i64(i64 %12, i1 true)
  br label %.lr.ph.i.i36.i

.lr.ph.i.i36.i:                                   ; preds = %.lr.ph.i.i36.i, %.lr.ph.preheader.i.i34.i
  %.118.i.i37.i = phi i64 [ %.11117.i.i38.i, %.lr.ph.i.i36.i ], [ %spec.select.i.i32.i, %.lr.ph.preheader.i.i34.i ]
  %.11117.i.i38.i = phi i64 [ %13, %.lr.ph.i.i36.i ], [ %.010.i.i35.i, %.lr.ph.preheader.i.i34.i ]
  %13 = urem i64 %.118.i.i37.i, %.11117.i.i38.i
  %.not.i.i39.i = icmp eq i64 %13, 0
  br i1 %.not.i.i39.i, label %calcGCD.exit.i40.i, label %.lr.ph.i.i36.i, !llvm.loop !4

calcGCD.exit.i40.i:                               ; preds = %.lr.ph.i.i36.i, %avifFractionSimplify.exit.i
  %.1.lcssa.i.i41.i = phi i64 [ %spec.select.i.i32.i, %avifFractionSimplify.exit.i ], [ %.11117.i.i38.i, %.lr.ph.i.i36.i ]
  %14 = icmp ugt i64 %.1.lcssa.i.i41.i, 1
  br i1 %14, label %15, label %avifFractionSimplify.exit42.i

15:                                               ; preds = %calcGCD.exit.i40.i
  %16 = sdiv i64 %11, %.1.lcssa.i.i41.i
  %17 = sdiv i64 %12, %.1.lcssa.i.i41.i
  br label %avifFractionSimplify.exit42.i

avifFractionSimplify.exit42.i:                    ; preds = %15, %calcGCD.exit.i40.i
  %.sroa.0.0.in = phi i64 [ %16, %15 ], [ %1, %calcGCD.exit.i40.i ]
  %.in = phi i64 [ %17, %15 ], [ %.sroa.5.0.extract.shift, %calcGCD.exit.i40.i ]
  %18 = trunc i64 %.in to i32
  %.not.i = icmp eq i32 %.sroa.6.0, %18
  br i1 %.not.i, label %35, label %19

19:                                               ; preds = %avifFractionSimplify.exit42.i
  %sext22 = shl i64 %.sroa.6.0.in, 32
  %20 = ashr exact i64 %sext22, 32
  %sext23 = shl i64 %.in, 32
  %21 = ashr exact i64 %sext23, 32
  %sext24 = shl i64 %.sroa.07.0.in, 32
  %22 = ashr exact i64 %sext24, 32
  %23 = mul nsw i64 %21, %22
  %24 = mul nsw i64 %21, %20
  %sext25 = shl i64 %.sroa.0.0.in, 32
  %25 = ashr exact i64 %sext25, 32
  %26 = mul nsw i64 %25, %20
  %27 = add nsw i64 %23, 2147483648
  %28 = icmp ult i64 %27, 4294967296
  %29 = add nsw i64 %24, 2147483648
  %30 = icmp ult i64 %29, 4294967296
  %or.cond.i = select i1 %28, i1 %30, i1 false
  %31 = add nsw i64 %26, 2147483648
  %32 = icmp ult i64 %31, 4294967296
  %or.cond45.i = select i1 %or.cond.i, i1 %32, i1 false
  br i1 %or.cond45.i, label %33, label %avifFractionCD.exit

33:                                               ; preds = %19
  %34 = trunc i64 %24 to i32
  br label %35

35:                                               ; preds = %33, %avifFractionSimplify.exit42.i
  %.sroa.6.1.ph = phi i32 [ %34, %33 ], [ %.sroa.6.0, %avifFractionSimplify.exit42.i ]
  %.sroa.07.1.ph.in = phi i64 [ %23, %33 ], [ %.sroa.07.0.in, %avifFractionSimplify.exit42.i ]
  %.sroa.0.1.ph.in = phi i64 [ %26, %33 ], [ %.sroa.0.0.in, %avifFractionSimplify.exit42.i ]
  %sext26 = shl i64 %.sroa.07.1.ph.in, 32
  %36 = ashr exact i64 %sext26, 32
  %sext27 = shl i64 %.sroa.0.1.ph.in, 32
  %37 = ashr exact i64 %sext27, 32
  %38 = add nsw i64 %37, %36
  %39 = add nsw i64 %38, 2147483648
  %40 = icmp ult i64 %39, 4294967296
  br i1 %40, label %41, label %avifFractionCD.exit

41:                                               ; preds = %35
  %42 = trunc i64 %38 to i32
  store i32 %42, ptr %2, align 4
  %43 = getelementptr inbounds nuw i8, ptr %2, i64 4
  store i32 %.sroa.6.1.ph, ptr %43, align 4
  %44 = sext i32 %.sroa.6.1.ph to i64
  %spec.select.i.i = tail call i64 @llvm.abs.i64(i64 %38, i1 true)
  %.not16.i.i = icmp eq i32 %.sroa.6.1.ph, 0
  br i1 %.not16.i.i, label %calcGCD.exit.i, label %.lr.ph.preheader.i.i

.lr.ph.preheader.i.i:                             ; preds = %41
  %.010.i.i = tail call i64 @llvm.abs.i64(i64 %44, i1 true)
  br label %.lr.ph.i.i

.lr.ph.i.i:                                       ; preds = %.lr.ph.i.i, %.lr.ph.preheader.i.i
  %.118.i.i = phi i64 [ %.11117.i.i, %.lr.ph.i.i ], [ %spec.select.i.i, %.lr.ph.preheader.i.i ]
  %.11117.i.i = phi i64 [ %45, %.lr.ph.i.i ], [ %.010.i.i, %.lr.ph.preheader.i.i ]
  %45 = urem i64 %.118.i.i, %.11117.i.i
  %.not.i.i = icmp eq i64 %45, 0
  br i1 %.not.i.i, label %calcGCD.exit.i, label %.lr.ph.i.i, !llvm.loop !4

calcGCD.exit.i:                                   ; preds = %.lr.ph.i.i, %41
  %.1.lcssa.i.i = phi i64 [ %spec.select.i.i, %41 ], [ %.11117.i.i, %.lr.ph.i.i ]
  %46 = icmp ugt i64 %.1.lcssa.i.i, 1
  br i1 %46, label %47, label %avifFractionCD.exit

47:                                               ; preds = %calcGCD.exit.i
  %48 = sdiv i64 %38, %.1.lcssa.i.i
  %49 = trunc nsw i64 %48 to i32
  store i32 %49, ptr %2, align 4
  %50 = sdiv i64 %44, %.1.lcssa.i.i
  %51 = trunc nsw i64 %50 to i32
  store i32 %51, ptr %43, align 4
  br label %avifFractionCD.exit

avifFractionCD.exit:                              ; preds = %47, %calcGCD.exit.i, %19, %35
  %.0 = phi i32 [ 0, %35 ], [ 0, %19 ], [ 1, %calcGCD.exit.i ], [ 1, %47 ]
  ret i32 %.0
}